target datalayout = "e-m:e-p270:32:32-p271:32:32-p272:64:64-i64:64-i128:128-f80:128-n8:16:32:64-S128"
target triple = "x86_64-pc-linux-gnu"

%struct.gmx_ana_pos_t = type <{ ptr, ptr, ptr, %struct.gmx_ana_indexmap_t, i32, [4 x i8] }>
%struct.gmx_ana_indexmap_t = type { i32, ptr, ptr, %struct.t_blocka, ptr, %struct.t_blocka, i8 }
%struct.t_blocka = type { i32, ptr, i32, ptr, i32, i32 }

; Function Attrs: mustprogress nounwind uwtable
define void @_Z22gmx_ana_pos_empty_initP13gmx_ana_pos_t(ptr noundef %0) #2 {
  %2 = alloca ptr, align 8
  store ptr %0, ptr %2, align 8
  %3 = load ptr, ptr %2, align 8
  %4 = getelementptr inbounds %struct.gmx_ana_pos_t, ptr %3, i32 0, i32 3
  %5 = getelementptr inbounds %struct.gmx_ana_indexmap_t, ptr %4, i32 0, i32 3
  %6 = getelementptr inbounds %struct.t_blocka, ptr %5, i32 0, i32 0
  store i32 0, ptr %6, align 8
  %7 = load ptr, ptr %2, align 8
  %8 = getelementptr inbounds %struct.gmx_ana_pos_t, ptr %7, i32 0, i32 3
  %9 = getelementptr inbounds %struct.gmx_ana_indexmap_t, ptr %8, i32 0, i32 3
  %10 = getelementptr inbounds %struct.t_blocka, ptr %9, i32 0, i32 2
  store i32 0, ptr %10, align 8
  %11 = load ptr, ptr %2, align 8
  %12 = getelementptr inbounds %struct.gmx_ana_pos_t, ptr %11, i32 0, i32 3
  %13 = getelementptr inbounds %struct.gmx_ana_indexmap_t, ptr %12, i32 0, i32 5
  %14 = getelementptr inbounds %struct.t_blocka, ptr %13, i32 0, i32 0
  store i32 0, ptr %14, align 8
  %15 = load ptr, ptr %2, align 8
  %16 = getelementptr inbounds %struct.gmx_ana_pos_t, ptr %15, i32 0, i32 3
  %17 = getelementptr inbounds %struct.gmx_ana_indexmap_t, ptr %16, i32 0, i32 5
  %18 = getelementptr inbounds %struct.t_blocka, ptr %17, i32 0, i32 2
  store i32 0, ptr %18, align 8
  %19 = load ptr, ptr %2, align 8
  %20 = getelementptr inbounds %struct.gmx_ana_pos_t, ptr %19, i32 0, i32 3
  %21 = getelementptr inbounds %struct.gmx_ana_indexmap_t, ptr %20, i32 0, i32 3
  %22 = getelementptr inbounds %struct.t_blocka, ptr %21, i32 0, i32 1
  %23 = load ptr, ptr %22, align 8
  %24 = getelementptr inbounds i32, ptr %23, i64 0
  store i32 0, ptr %24, align 4
  %25 = load ptr, ptr %2, align 8
  %26 = getelementptr inbounds %struct.gmx_ana_pos_t, ptr %25, i32 0, i32 3
  %27 = getelementptr inbounds %struct.gmx_ana_indexmap_t, ptr %26, i32 0, i32 5
  %28 = getelementptr inbounds %struct.t_blocka, ptr %27, i32 0, i32 1
  %29 = load ptr, ptr %28, align 8
  %30 = getelementptr inbounds i32, ptr %29, i64 0
  store i32 0, ptr %30, align 4
  %31 = load ptr, ptr %2, align 8
  %32 = getelementptr inbounds %struct.gmx_ana_pos_t, ptr %31, i32 0, i32 3
  %33 = getelementptr inbounds %struct.gmx_ana_indexmap_t, ptr %32, i32 0, i32 6
  store i8 1, ptr %33, align 8
  ret void
}