; Function Attrs: mustprogress nofree norecurse nosync nounwind willreturn memory(write, argmem: readwrite, inaccessiblemem: none) uwtable
define void @_Z22gmx_ana_pos_empty_initP13gmx_ana_pos_t(ptr nocapture noundef %0) local_unnamed_addr #7 {
  %2 = getelementptr inbounds i8, ptr %0, i64 48
  store i32 0, ptr %2, align 8
  %3 = getelementptr inbounds i8, ptr %0, i64 64
  store i32 0, ptr %3, align 8
  %4 = getelementptr inbounds i8, ptr %0, i64 96
  store i32 0, ptr %4, align 8
  %5 = getelementptr inbounds i8, ptr %0, i64 112
  store i32 0, ptr %5, align 8
  %6 = getelementptr inbounds i8, ptr %0, i64 56
  %7 = load ptr, ptr %6, align 8
  store i32 0, ptr %7, align 4
  %8 = getelementptr inbounds i8, ptr %0, i64 104
  %9 = load ptr, ptr %8, align 8
  store i32 0, ptr %9, align 4
  %10 = getelementptr inbounds i8, ptr %0, i64 136
  store i8 1, ptr %10, align 8
  ret void
}